target datalayout = "e-m:e-p270:32:32-p271:32:32-p272:64:64-i64:64-i128:128-f80:128-n8:16:32:64-S128"
target triple = "x86_64-unknown-linux-gnu"

%"class.std::vector" = type { %"struct.std::_Vector_base" }
%"struct.std::_Vector_base" = type { %"struct.std::_Vector_base<double, std::allocator<double>>::_Vector_impl" }
%"struct.std::_Vector_base<double, std::allocator<double>>::_Vector_impl" = type { %"struct.std::_Vector_base<double, std::allocator<double>>::_Vector_impl_data" }
%"struct.std::_Vector_base<double, std::allocator<double>>::_Vector_impl_data" = type { ptr, ptr, ptr }
%"class.QuantLib::MarketModelMultiProduct" = type { ptr }
%"class.QuantLib::EvolutionDescription" = type { i64, %"class.std::vector", %"class.std::vector", %"class.std::vector.0", %"class.std::vector", %"class.std::vector.5" }
%"class.std::vector.0" = type { %"struct.std::_Vector_base.1" }
%"struct.std::_Vector_base.1" = type { %"struct.std::_Vector_base<std::pair<unsigned long, unsigned long>, std::allocator<std::pair<unsigned long, unsigned long>>>::_Vector_impl" }
%"struct.std::_Vector_base<std::pair<unsigned long, unsigned long>, std::allocator<std::pair<unsigned long, unsigned long>>>::_Vector_impl" = type { %"struct.std::_Vector_base<std::pair<unsigned long, unsigned long>, std::allocator<std::pair<unsigned long, unsigned long>>>::_Vector_impl_data" }
%"struct.std::_Vector_base<std::pair<unsigned long, unsigned long>, std::allocator<std::pair<unsigned long, unsigned long>>>::_Vector_impl_data" = type { ptr, ptr, ptr }
%"class.std::vector.5" = type { %"struct.std::_Vector_base.6" }
%"struct.std::_Vector_base.6" = type { %"struct.std::_Vector_base<unsigned long, std::allocator<unsigned long>>::_Vector_impl" }
%"struct.std::_Vector_base<unsigned long, std::allocator<unsigned long>>::_Vector_impl" = type { %"struct.std::_Vector_base<unsigned long, std::allocator<unsigned long>>::_Vector_impl_data" }
%"struct.std::_Vector_base<unsigned long, std::allocator<unsigned long>>::_Vector_impl_data" = type { ptr, ptr, ptr }
%"class.QuantLib::Clone.42" = type { %"class.std::unique_ptr.43" }
%"class.std::unique_ptr.43" = type { %"struct.std::__uniq_ptr_data.44" }
%"struct.std::__uniq_ptr_data.44" = type { %"class.std::__uniq_ptr_impl.45" }
%"class.std::__uniq_ptr_impl.45" = type { %"class.std::tuple.46" }
%"class.std::tuple.46" = type { %"struct.std::_Tuple_impl.47" }
%"struct.std::_Tuple_impl.47" = type { %"struct.std::_Head_base.50" }
%"struct.std::_Head_base.50" = type { ptr }
%"class.QuantLib::(anonymous namespace)::DecoratedHedge" = type { %"class.QuantLib::CallSpecifiedMultiProduct.base", %"class.std::vector.60", i64, i8, %"class.std::vector.5", %"class.std::vector.32" }
%"class.QuantLib::CallSpecifiedMultiProduct.base" = type <{ %"class.QuantLib::MarketModelMultiProduct", %"class.QuantLib::Clone.42", %"class.QuantLib::Clone.51", %"class.QuantLib::Clone.42", %"class.QuantLib::EvolutionDescription", %"class.std::vector.27", %"class.std::vector", i64, i8, [7 x i8], %"class.std::vector.5", %"class.std::vector.32", i64, i8 }>
%"class.QuantLib::Clone.51" = type { %"class.std::unique_ptr.52" }
%"class.std::unique_ptr.52" = type { %"struct.std::__uniq_ptr_data.53" }
%"struct.std::__uniq_ptr_data.53" = type { %"class.std::__uniq_ptr_impl.54" }
%"class.std::__uniq_ptr_impl.54" = type { %"class.std::tuple.55" }
%"class.std::tuple.55" = type { %"struct.std::_Tuple_impl.56" }
%"struct.std::_Tuple_impl.56" = type { %"struct.std::_Head_base.59" }
%"struct.std::_Head_base.59" = type { ptr }
%"class.std::vector.27" = type { %"struct.std::_Vector_base.28" }
%"struct.std::_Vector_base.28" = type { %"struct.std::_Vector_base<std::valarray<bool>, std::allocator<std::valarray<bool>>>::_Vector_impl" }
%"struct.std::_Vector_base<std::valarray<bool>, std::allocator<std::valarray<bool>>>::_Vector_impl" = type { %"struct.std::_Vector_base<std::valarray<bool>, std::allocator<std::valarray<bool>>>::_Vector_impl_data" }
%"struct.std::_Vector_base<std::valarray<bool>, std::allocator<std::valarray<bool>>>::_Vector_impl_data" = type { ptr, ptr, ptr }
%"class.std::vector.60" = type { %"struct.std::_Vector_base.61" }
%"struct.std::_Vector_base.61" = type { %"struct.std::_Vector_base<QuantLib::Clone<QuantLib::CurveState>, std::allocator<QuantLib::Clone<QuantLib::CurveState>>>::_Vector_impl" }
%"struct.std::_Vector_base<QuantLib::Clone<QuantLib::CurveState>, std::allocator<QuantLib::Clone<QuantLib::CurveState>>>::_Vector_impl" = type { %"struct.std::_Vector_base<QuantLib::Clone<QuantLib::CurveState>, std::allocator<QuantLib::Clone<QuantLib::CurveState>>>::_Vector_impl_data" }
%"struct.std::_Vector_base<QuantLib::Clone<QuantLib::CurveState>, std::allocator<QuantLib::Clone<QuantLib::CurveState>>>::_Vector_impl_data" = type { ptr, ptr, ptr }
%"class.std::vector.32" = type { %"struct.std::_Vector_base.33" }
%"struct.std::_Vector_base.33" = type { %"struct.std::_Vector_base<std::vector<QuantLib::MarketModelMultiProduct::CashFlow>, std::allocator<std::vector<QuantLib::MarketModelMultiProduct::CashFlow>>>::_Vector_impl" }
%"struct.std::_Vector_base<std::vector<QuantLib::MarketModelMultiProduct::CashFlow>, std::allocator<std::vector<QuantLib::MarketModelMultiProduct::CashFlow>>>::_Vector_impl" = type { %"struct.std::_Vector_base<std::vector<QuantLib::MarketModelMultiProduct::CashFlow>, std::allocator<std::vector<QuantLib::MarketModelMultiProduct::CashFlow>>>::_Vector_impl_data" }
%"struct.std::_Vector_base<std::vector<QuantLib::MarketModelMultiProduct::CashFlow>, std::allocator<std::vector<QuantLib::MarketModelMultiProduct::CashFlow>>>::_Vector_impl_data" = type { ptr, ptr, ptr }
%"class.QuantLib::Clone.99" = type { %"class.std::unique_ptr.100" }
%"class.std::unique_ptr.100" = type { %"struct.std::__uniq_ptr_data.101" }
%"struct.std::__uniq_ptr_data.101" = type { %"class.std::__uniq_ptr_impl.102" }
%"class.std::__uniq_ptr_impl.102" = type { %"class.std::tuple.103" }
%"class.std::tuple.103" = type { %"struct.std::_Tuple_impl.104" }
%"struct.std::_Tuple_impl.104" = type { %"struct.std::_Head_base.107" }
%"struct.std::_Head_base.107" = type { ptr }

; Function Attrs: mustprogress nounwind uwtable
define linkonce_odr noundef nonnull align 8 dereferenceable(8) ptr @_ZNSt6vectorIN8QuantLib5CloneINS0_10CurveStateEEESaIS3_EEixEm(ptr noundef nonnull align 8 dereferenceable(24) %this, i64 noundef %__n) #3 comdat align 2 {
entry:
  %this.addr = alloca ptr, align 8
  %__n.addr = alloca i64, align 8
  store ptr %this, ptr %this.addr, align 8, !tbaa !3
  store i64 %__n, ptr %__n.addr, align 8, !tbaa !68
  %this1 = load ptr, ptr %this.addr, align 8
  %_M_impl = getelementptr inbounds nuw %"struct.std::_Vector_base.61", ptr %this1, i32 0, i32 0
  %_M_start = getelementptr inbounds nuw %"struct.std::_Vector_base<QuantLib::Clone<QuantLib::CurveState>, std::allocator<QuantLib::Clone<QuantLib::CurveState>>>::_Vector_impl_data", ptr %_M_impl, i32 0, i32 0
  %0 = load ptr, ptr %_M_start, align 8, !tbaa !172
  %1 = load i64, ptr %__n.addr, align 8, !tbaa !68
  %add.ptr = getelementptr inbounds nuw %"class.QuantLib::Clone.99", ptr %0, i64 %1
  ret ptr %add.ptr
}

; Function Attrs: mustprogress uwtable
define internal void @_ZN8QuantLib12_GLOBAL__N_114DecoratedHedge5resetEv(ptr noundef nonnull align 8 dereferenceable(376) %this) unnamed_addr #2 align 2 {
entry:
  %this.addr = alloca ptr, align 8
  %i = alloca i64, align 8
  store ptr %this, ptr %this.addr, align 8, !tbaa !3
  %this1 = load ptr, ptr %this.addr, align 8
  call void @_ZN8QuantLib25CallSpecifiedMultiProduct5resetEv(ptr noundef nonnull align 8 dereferenceable(281) %this1)
  call void @_ZN8QuantLib25CallSpecifiedMultiProduct18disableCallabilityEv(ptr noundef nonnull align 8 dereferenceable(281) %this1)
  call void @llvm.lifetime.start.p0(i64 8, ptr %i) #18
  store i64 0, ptr %i, align 8, !tbaa !68
  br label %for.cond

for.cond:                                         ; preds = %for.inc, %entry
  %0 = load i64, ptr %i, align 8, !tbaa !68
  %lastSavedStep_ = getelementptr inbounds nuw %"class.QuantLib::(anonymous namespace)::DecoratedHedge", ptr %this1, i32 0, i32 2
  %1 = load i64, ptr %lastSavedStep_, align 8, !tbaa !103
  %cmp = icmp ult i64 %0, %1
  br i1 %cmp, label %for.body, label %for.cond.cleanup

for.cond.cleanup:                                 ; preds = %for.cond
  call void @llvm.lifetime.end.p0(i64 8, ptr %i) #18
  br label %for.end

for.body:                                         ; preds = %for.cond
  %savedStates_ = getelementptr inbounds nuw %"class.QuantLib::(anonymous namespace)::DecoratedHedge", ptr %this1, i32 0, i32 1
  %2 = load i64, ptr %i, align 8, !tbaa !68
  %call = call noundef nonnull align 8 dereferenceable(8) ptr @_ZNSt6vectorIN8QuantLib5CloneINS0_10CurveStateEEESaIS3_EEixEm(ptr noundef nonnull align 8 dereferenceable(24) %savedStates_, i64 noundef %2) #18
  %call2 = call noundef nonnull align 8 dereferenceable(64) ptr @_ZNK8QuantLib5CloneINS_10CurveStateEEdeEv(ptr noundef nonnull align 8 dereferenceable(8) %call)
  %numberCashFlowsThisStep_ = getelementptr inbounds nuw %"class.QuantLib::(anonymous namespace)::DecoratedHedge", ptr %this1, i32 0, i32 4
  %cashFlowsGenerated_ = getelementptr inbounds nuw %"class.QuantLib::(anonymous namespace)::DecoratedHedge", ptr %this1, i32 0, i32 5
  %call3 = call noundef zeroext i1 @_ZN8QuantLib25CallSpecifiedMultiProduct12nextTimeStepERKNS_10CurveStateERSt6vectorImSaImEERS4_IS4_INS_23MarketModelMultiProduct8CashFlowESaIS9_EESaISB_EE(ptr noundef nonnull align 8 dereferenceable(281) %this1, ptr noundef nonnull align 8 dereferenceable(64) %call2, ptr noundef nonnull align 8 dereferenceable(24) %numberCashFlowsThisStep_, ptr noundef nonnull align 8 dereferenceable(24) %cashFlowsGenerated_)
  br label %for.inc

for.inc:                                          ; preds = %for.body
  %3 = load i64, ptr %i, align 8, !tbaa !68
  %inc = add i64 %3, 1
  store i64 %inc, ptr %i, align 8, !tbaa !68
  br label %for.cond, !llvm.loop !175

for.end:                                          ; preds = %for.cond.cleanup
  call void @_ZN8QuantLib25CallSpecifiedMultiProduct17enableCallabilityEv(ptr noundef nonnull align 8 dereferenceable(281) %this1)
  ret void
}