; Function Attrs: mustprogress uwtable
define internal void @_ZN8QuantLib12_GLOBAL__N_114DecoratedHedge5resetEv(ptr noundef nonnull align 8 dereferenceable(376) %this) unnamed_addr #1 align 2 {
entry:
  tail call void @_ZN8QuantLib25CallSpecifiedMultiProduct5resetEv(ptr noundef nonnull align 8 dereferenceable(281) %this)
  tail call void @_ZN8QuantLib25CallSpecifiedMultiProduct18disableCallabilityEv(ptr noundef nonnull align 8 dereferenceable(281) %this)
  %lastSavedStep_ = getelementptr inbounds nuw i8, ptr %this, i64 312
  %0 = load i64, ptr %lastSavedStep_, align 8, !tbaa !96
  %cmp3.not = icmp eq i64 %0, 0
  br i1 %cmp3.not, label %for.cond.cleanup, label %for.body.lr.ph

for.body.lr.ph:                                   ; preds = %entry
  %savedStates_ = getelementptr inbounds nuw i8, ptr %this, i64 288
  %numberCashFlowsThisStep_ = getelementptr inbounds nuw i8, ptr %this, i64 328
  %cashFlowsGenerated_ = getelementptr inbounds nuw i8, ptr %this, i64 352
  br label %for.body

for.cond.cleanup:                                 ; preds = %for.body, %entry
  tail call void @_ZN8QuantLib25CallSpecifiedMultiProduct17enableCallabilityEv(ptr noundef nonnull align 8 dereferenceable(281) %this)
  ret void

for.body:                                         ; preds = %for.body.lr.ph, %for.body
  %i.04 = phi i64 [ 0, %for.body.lr.ph ], [ %inc, %for.body ]
  %1 = load ptr, ptr %savedStates_, align 8, !tbaa !71
  %add.ptr.i = getelementptr inbounds nuw %"class.QuantLib::Clone.99", ptr %1, i64 %i.04
  %call2 = tail call noundef nonnull align 8 dereferenceable(64) ptr @_ZNK8QuantLib5CloneINS_10CurveStateEEdeEv(ptr noundef nonnull align 8 dereferenceable(8) %add.ptr.i)
  %call3 = tail call noundef zeroext i1 @_ZN8QuantLib25CallSpecifiedMultiProduct12nextTimeStepERKNS_10CurveStateERSt6vectorImSaImEERS4_IS4_INS_23MarketModelMultiProduct8CashFlowESaIS9_EESaISB_EE(ptr noundef nonnull align 8 dereferenceable(281) %this, ptr noundef nonnull align 8 dereferenceable(64) %call2, ptr noundef nonnull align 8 dereferenceable(24) %numberCashFlowsThisStep_, ptr noundef nonnull align 8 dereferenceable(24) %cashFlowsGenerated_)
  %inc = add nuw i64 %i.04, 1
  %2 = load i64, ptr %lastSavedStep_, align 8, !tbaa !96
  %cmp = icmp ult i64 %inc, %2
  br i1 %cmp, label %for.body, label %for.cond.cleanup, !llvm.loop !219
}